target datalayout = "e-m:e-p270:32:32-p271:32:32-p272:64:64-i64:64-i128:128-f80:128-n8:16:32:64-S128"
target triple = "x86_64-unknown-linux-gnu"

%struct.ssl_st = type { i32, i16, i16, ptr, ptr, ptr, ptr, ptr, i32, i32, ptr, ptr, i32, i32, ptr, ptr, ptr, ptr, ptr, ptr, ptr, ptr, i32, i32, [32 x i8], ptr, ptr, ptr, ptr, ptr, ptr, ptr, i64, %struct.crypto_ex_data_st, ptr, i32, i32, i32, i32, i16, ptr, i32, i64, ptr, ptr, ptr, ptr, ptr, ptr, i32, i32, ptr, ptr, i8, i8, i32 }
%struct.crypto_ex_data_st = type { ptr }

@.str = private unnamed_addr constant [116 x i8] c"generated/home/dtcxzyw/WorkSpace/Projects/compilers/llvm-opt-benchmark/bench/libquic/libquic/boringssl/ssl/s3_lib.c\00", align 1

; Function Attrs: nounwind uwtable
define hidden i32 @SSL_set1_curves(ptr noundef %ssl, ptr noundef %curves, i64 noundef %curves_len) #0 {
entry:
  %ssl.addr = alloca ptr, align 8
  %curves.addr = alloca ptr, align 8
  %curves_len.addr = alloca i64, align 8
  store ptr %ssl, ptr %ssl.addr, align 8
  store ptr %curves, ptr %curves.addr, align 8
  store i64 %curves_len, ptr %curves_len.addr, align 8
  %0 = load ptr, ptr %ssl.addr, align 8
  %tlsext_ellipticcurvelist = getelementptr inbounds %struct.ssl_st, ptr %0, i32 0, i32 43
  %1 = load ptr, ptr %ssl.addr, align 8
  %tlsext_ellipticcurvelist_length = getelementptr inbounds %struct.ssl_st, ptr %1, i32 0, i32 42
  %2 = load ptr, ptr %curves.addr, align 8
  %3 = load i64, ptr %curves_len.addr, align 8
  %call = call i32 @tls1_set_curves(ptr noundef %tlsext_ellipticcurvelist, ptr noundef %tlsext_ellipticcurvelist_length, ptr noundef %2, i64 noundef %3)
  ret i32 %call
}

; Function Attrs: nounwind uwtable
define hidden i32 @SSL_set_tmp_ecdh(ptr noundef %ssl, ptr noundef %ec_key) #0 {
entry:
  %retval = alloca i32, align 4
  %ssl.addr = alloca ptr, align 8
  %ec_key.addr = alloca ptr, align 8
  %nid = alloca i32, align 4
  store ptr %ssl, ptr %ssl.addr, align 8
  store ptr %ec_key, ptr %ec_key.addr, align 8
  %0 = load ptr, ptr %ec_key.addr, align 8
  %cmp = icmp eq ptr %0, null
  br i1 %cmp, label %if.then, label %lor.lhs.false

lor.lhs.false:                                    ; preds = %entry
  %1 = load ptr, ptr %ec_key.addr, align 8
  %call = call ptr @EC_KEY_get0_group(ptr noundef %1)
  %cmp1 = icmp eq ptr %call, null
  br i1 %cmp1, label %if.then, label %if.end

if.then:                                          ; preds = %lor.lhs.false, %entry
  call void @ERR_put_error(i32 noundef 16, i32 noundef 0, i32 noundef 67, ptr noundef @.str, i32 noundef 296)
  store i32 0, ptr %retval, align 4
  br label %return

if.end:                                           ; preds = %lor.lhs.false
  %2 = load ptr, ptr %ec_key.addr, align 8
  %call2 = call ptr @EC_KEY_get0_group(ptr noundef %2)
  %call3 = call i32 @EC_GROUP_get_curve_name(ptr noundef %call2)
  store i32 %call3, ptr %nid, align 4
  %3 = load ptr, ptr %ssl.addr, align 8
  %call4 = call i32 @SSL_set1_curves(ptr noundef %3, ptr noundef %nid, i64 noundef 1)
  store i32 %call4, ptr %retval, align 4
  br label %return

return:                                           ; preds = %if.end, %if.then
  %4 = load i32, ptr %retval, align 4
  ret i32 %4
}